target datalayout = "e-m:e-p270:32:32-p271:32:32-p272:64:64-i64:64-i128:128-f80:128-n8:16:32:64-S128"
target triple = "x86_64-pc-linux-gnu"

%class.TransTableS = type <{ %class.TransTable, [14 x i64], %"struct.TransTableS::statsResetsType", [4 x i8], [5 x %"struct.TransTableS::winCardType"], i32, i32, i64, i64, i64, i32, i32, i32, i32, i32, i8, [3 x i8], i32, [4 x i8], ptr, [14 x [4 x ptr]], ptr, ptr, [14 x [4 x ptr]], ptr, ptr, [14 x [4 x ptr]], i32, i32, [14 x [4 x i32]], [14 x [4 x i32]], %"class.std::vector", [14 x i64], i32, [4 x i8] }>
%class.TransTable = type { ptr }
%"struct.TransTableS::statsResetsType" = type { i32, [6 x i32] }
%"struct.TransTableS::winCardType" = type { i32, i32, ptr, ptr, ptr, ptr }
%"class.std::vector" = type { %"struct.std::_Vector_base" }
%"struct.std::_Vector_base" = type { %"struct.std::_Vector_base<std::__cxx11::basic_string<char>, std::allocator<std::__cxx11::basic_string<char>>>::_Vector_impl" }
%"struct.std::_Vector_base<std::__cxx11::basic_string<char>, std::allocator<std::__cxx11::basic_string<char>>>::_Vector_impl" = type { %"struct.std::_Vector_base<std::__cxx11::basic_string<char>, std::allocator<std::__cxx11::basic_string<char>>>::_Vector_impl_data" }
%"struct.std::_Vector_base<std::__cxx11::basic_string<char>, std::allocator<std::__cxx11::basic_string<char>>>::_Vector_impl_data" = type { ptr, ptr, ptr }
%"struct.TransTableS::ttAggrType" = type { [4 x i32], [4 x i32] }
%struct.nodeCardsType = type { i8, i8, i8, i8, [4 x i8] }

@_ZL12TTlowestRank = internal global [8192 x i32] zeroinitializer, align 16

; Function Attrs: mustprogress uwtable
define void @_ZN11TransTableS8BuildSOPEPKtS1_RK13nodeCardsTypexiib(ptr noundef nonnull align 8 dereferenceable(2396) %0, ptr noundef %1, ptr noundef %2, ptr noundef nonnull align 1 dereferenceable(8) %3, i64 noundef %4, i32 noundef %5, i32 noundef %6, i1 noundef zeroext %7) #4 align 2 {
  %9 = alloca ptr, align 8
  %10 = alloca ptr, align 8
  %11 = alloca ptr, align 8
  %12 = alloca ptr, align 8
  %13 = alloca i64, align 8
  %14 = alloca i32, align 4
  %15 = alloca i32, align 4
  %16 = alloca i8, align 1
  %17 = alloca [4 x i32], align 16
  %18 = alloca [4 x i32], align 16
  %19 = alloca [4 x i8], align 1
  %20 = alloca i32, align 4
  %21 = alloca i32, align 4
  %22 = alloca i16, align 2
  %23 = alloca i8, align 1
  %24 = alloca ptr, align 8
  %25 = alloca ptr, align 8
  %26 = alloca i32, align 4
  store ptr %0, ptr %9, align 8
  store ptr %1, ptr %10, align 8
  store ptr %2, ptr %11, align 8
  store ptr %3, ptr %12, align 8
  store i64 %4, ptr %13, align 8
  store i32 %5, ptr %14, align 4
  store i32 %6, ptr %15, align 4
  %27 = zext i1 %7 to i8
  store i8 %27, ptr %16, align 1
  %28 = load ptr, ptr %9, align 8
  store i32 0, ptr %20, align 4
  br label %29

29:                                               ; preds = %101, %8
  %30 = load i32, ptr %20, align 4
  %31 = icmp slt i32 %30, 4
  br i1 %31, label %32, label %104

32:                                               ; preds = %29
  %33 = load ptr, ptr %10, align 8
  %34 = load i32, ptr %20, align 4
  %35 = sext i32 %34 to i64
  %36 = getelementptr inbounds i16, ptr %33, i64 %35
  %37 = load i16, ptr %36, align 2
  %38 = zext i16 %37 to i32
  store i32 %38, ptr %21, align 4
  %39 = load i32, ptr %21, align 4
  %40 = icmp eq i32 %39, 0
  br i1 %40, label %41, label %51

41:                                               ; preds = %32
  %42 = load i32, ptr %20, align 4
  %43 = sext i32 %42 to i64
  %44 = getelementptr inbounds [4 x i32], ptr %17, i64 0, i64 %43
  store i32 0, ptr %44, align 4
  %45 = load i32, ptr %20, align 4
  %46 = sext i32 %45 to i64
  %47 = getelementptr inbounds [4 x i32], ptr %18, i64 0, i64 %46
  store i32 0, ptr %47, align 4
  %48 = load i32, ptr %20, align 4
  %49 = sext i32 %48 to i64
  %50 = getelementptr inbounds [4 x i8], ptr %19, i64 0, i64 %49
  store i8 15, ptr %50, align 1
  br label %100

51:                                               ; preds = %32
  %52 = load i32, ptr %21, align 4
  %53 = load i32, ptr %21, align 4
  %54 = sub nsw i32 0, %53
  %55 = and i32 %52, %54
  store i32 %55, ptr %21, align 4
  %56 = load ptr, ptr %11, align 8
  %57 = load i32, ptr %20, align 4
  %58 = sext i32 %57 to i64
  %59 = getelementptr inbounds i16, ptr %56, i64 %58
  %60 = load i16, ptr %59, align 2
  %61 = zext i16 %60 to i32
  %62 = load i32, ptr %21, align 4
  %63 = sub nsw i32 0, %62
  %64 = and i32 %61, %63
  %65 = trunc i32 %64 to i16
  store i16 %65, ptr %22, align 2
  %66 = getelementptr inbounds nuw %class.TransTableS, ptr %28, i32 0, i32 19
  %67 = load ptr, ptr %66, align 8
  %68 = load i16, ptr %22, align 2
  %69 = zext i16 %68 to i64
  %70 = getelementptr inbounds %"struct.TransTableS::ttAggrType", ptr %67, i64 %69
  %71 = getelementptr inbounds nuw %"struct.TransTableS::ttAggrType", ptr %70, i32 0, i32 1
  %72 = load i32, ptr %20, align 4
  %73 = sext i32 %72 to i64
  %74 = getelementptr inbounds [4 x i32], ptr %71, i64 0, i64 %73
  %75 = load i32, ptr %74, align 4
  %76 = load i32, ptr %20, align 4
  %77 = sext i32 %76 to i64
  %78 = getelementptr inbounds [4 x i32], ptr %17, i64 0, i64 %77
  store i32 %75, ptr %78, align 4
  %79 = getelementptr inbounds nuw %class.TransTableS, ptr %28, i32 0, i32 19
  %80 = load ptr, ptr %79, align 8
  %81 = load i16, ptr %22, align 2
  %82 = zext i16 %81 to i64
  %83 = getelementptr inbounds %"struct.TransTableS::ttAggrType", ptr %80, i64 %82
  %84 = getelementptr inbounds nuw %"struct.TransTableS::ttAggrType", ptr %83, i32 0, i32 0
  %85 = load i32, ptr %20, align 4
  %86 = sext i32 %85 to i64
  %87 = getelementptr inbounds [4 x i32], ptr %84, i64 0, i64 %86
  %88 = load i32, ptr %87, align 4
  %89 = load i32, ptr %20, align 4
  %90 = sext i32 %89 to i64
  %91 = getelementptr inbounds [4 x i32], ptr %18, i64 0, i64 %90
  store i32 %88, ptr %91, align 4
  %92 = load i16, ptr %22, align 2
  %93 = zext i16 %92 to i64
  %94 = getelementptr inbounds [8192 x i32], ptr @_ZL12TTlowestRank, i64 0, i64 %93
  %95 = load i32, ptr %94, align 4
  %96 = trunc i32 %95 to i8
  %97 = load i32, ptr %20, align 4
  %98 = sext i32 %97 to i64
  %99 = getelementptr inbounds [4 x i8], ptr %19, i64 0, i64 %98
  store i8 %96, ptr %99, align 1
  br label %100

100:                                              ; preds = %51, %41
  br label %101

101:                                              ; preds = %100
  %102 = load i32, ptr %20, align 4
  %103 = add nsw i32 %102, 1
  store i32 %103, ptr %20, align 4
  br label %29, !llvm.loop !35

104:                                              ; preds = %29
  %105 = getelementptr inbounds nuw %class.TransTableS, ptr %28, i32 0, i32 20
  %106 = load i32, ptr %14, align 4
  %107 = sext i32 %106 to i64
  %108 = getelementptr inbounds [14 x [4 x ptr]], ptr %105, i64 0, i64 %107
  %109 = load i32, ptr %15, align 4
  %110 = sext i32 %109 to i64
  %111 = getelementptr inbounds [4 x ptr], ptr %108, i64 0, i64 %110
  %112 = load ptr, ptr %111, align 8
  %113 = load i64, ptr %13, align 8
  %114 = load i32, ptr %14, align 4
  %115 = load i32, ptr %15, align 4
  %116 = call noundef ptr @_ZN11TransTableS18SearchLenAndInsertEPNS_18posSearchTypeSmallExbiiRb(ptr noundef nonnull align 8 dereferenceable(2396) %28, ptr noundef %112, i64 noundef %113, i1 noundef zeroext true, i32 noundef %114, i32 noundef %115, ptr noundef nonnull align 1 dereferenceable(1) %23)
  store ptr %116, ptr %24, align 8
  %117 = getelementptr inbounds [4 x i32], ptr %17, i64 0, i64 0
  %118 = getelementptr inbounds [4 x i32], ptr %18, i64 0, i64 0
  %119 = load ptr, ptr %12, align 8
  %120 = getelementptr inbounds nuw %struct.nodeCardsType, ptr %119, i32 0, i32 0
  %121 = load i8, ptr %120, align 1
  %122 = sext i8 %121 to i32
  %123 = load ptr, ptr %12, align 8
  %124 = getelementptr inbounds nuw %struct.nodeCardsType, ptr %123, i32 0, i32 1
  %125 = load i8, ptr %124, align 1
  %126 = sext i8 %125 to i32
  %127 = load ptr, ptr %12, align 8
  %128 = getelementptr inbounds nuw %struct.nodeCardsType, ptr %127, i32 0, i32 2
  %129 = load i8, ptr %128, align 1
  %130 = load ptr, ptr %12, align 8
  %131 = getelementptr inbounds nuw %struct.nodeCardsType, ptr %130, i32 0, i32 3
  %132 = load i8, ptr %131, align 1
  %133 = load ptr, ptr %24, align 8
  %134 = call noundef ptr @_ZN11TransTableS9BuildPathEPKiS1_iiccPNS_18posSearchTypeSmallERb(ptr noundef nonnull align 8 dereferenceable(2396) %28, ptr noundef %117, ptr noundef %118, i32 noundef %122, i32 noundef %126, i8 noundef signext %129, i8 noundef signext %132, ptr noundef %133, ptr noundef nonnull align 1 dereferenceable(1) %23)
  store ptr %134, ptr %25, align 8
  %135 = load i8, ptr %23, align 1
  %136 = trunc i8 %135 to i1
  br i1 %136, label %137, label %187

137:                                              ; preds = %104
  %138 = load ptr, ptr %12, align 8
  %139 = getelementptr inbounds nuw %struct.nodeCardsType, ptr %138, i32 0, i32 0
  %140 = load i8, ptr %139, align 1
  %141 = load ptr, ptr %25, align 8
  %142 = getelementptr inbounds nuw %struct.nodeCardsType, ptr %141, i32 0, i32 0
  store i8 %140, ptr %142, align 1
  %143 = load ptr, ptr %12, align 8
  %144 = getelementptr inbounds nuw %struct.nodeCardsType, ptr %143, i32 0, i32 1
  %145 = load i8, ptr %144, align 1
  %146 = load ptr, ptr %25, align 8
  %147 = getelementptr inbounds nuw %struct.nodeCardsType, ptr %146, i32 0, i32 1
  store i8 %145, ptr %147, align 1
  %148 = load i8, ptr %16, align 1
  %149 = trunc i8 %148 to i1
  br i1 %149, label %150, label %161

150:                                              ; preds = %137
  %151 = load ptr, ptr %12, align 8
  %152 = getelementptr inbounds nuw %struct.nodeCardsType, ptr %151, i32 0, i32 2
  %153 = load i8, ptr %152, align 1
  %154 = load ptr, ptr %25, align 8
  %155 = getelementptr inbounds nuw %struct.nodeCardsType, ptr %154, i32 0, i32 2
  store i8 %153, ptr %155, align 1
  %156 = load ptr, ptr %12, align 8
  %157 = getelementptr inbounds nuw %struct.nodeCardsType, ptr %156, i32 0, i32 3
  %158 = load i8, ptr %157, align 1
  %159 = load ptr, ptr %25, align 8
  %160 = getelementptr inbounds nuw %struct.nodeCardsType, ptr %159, i32 0, i32 3
  store i8 %158, ptr %160, align 1
  br label %166

161:                                              ; preds = %137
  %162 = load ptr, ptr %25, align 8
  %163 = getelementptr inbounds nuw %struct.nodeCardsType, ptr %162, i32 0, i32 2
  store i8 0, ptr %163, align 1
  %164 = load ptr, ptr %25, align 8
  %165 = getelementptr inbounds nuw %struct.nodeCardsType, ptr %164, i32 0, i32 3
  store i8 0, ptr %165, align 1
  br label %166

166:                                              ; preds = %161, %150
  store i32 0, ptr %26, align 4
  br label %167

167:                                              ; preds = %183, %166
  %168 = load i32, ptr %26, align 4
  %169 = icmp slt i32 %168, 4
  br i1 %169, label %170, label %186

170:                                              ; preds = %167
  %171 = load i32, ptr %26, align 4
  %172 = sext i32 %171 to i64
  %173 = getelementptr inbounds [4 x i8], ptr %19, i64 0, i64 %172
  %174 = load i8, ptr %173, align 1
  %175 = sext i8 %174 to i32
  %176 = sub nsw i32 15, %175
  %177 = trunc i32 %176 to i8
  %178 = load ptr, ptr %25, align 8
  %179 = getelementptr inbounds nuw %struct.nodeCardsType, ptr %178, i32 0, i32 4
  %180 = load i32, ptr %26, align 4
  %181 = sext i32 %180 to i64
  %182 = getelementptr inbounds [4 x i8], ptr %179, i64 0, i64 %181
  store i8 %177, ptr %182, align 1
  br label %183

183:                                              ; preds = %170
  %184 = load i32, ptr %26, align 4
  %185 = add nsw i32 %184, 1
  store i32 %185, ptr %26, align 4
  br label %167, !llvm.loop !36

186:                                              ; preds = %167
  br label %187

187:                                              ; preds = %186, %104
  ret void
}