; Function Attrs: mustprogress nofree nounwind uwtable
define void @_ZN11TransTableS8BuildSOPEPKtS1_RK13nodeCardsTypexiib(ptr noundef nonnull align 8 dereferenceable(2396) %0, ptr nocapture noundef readonly %1, ptr nocapture noundef readonly %2, ptr nocapture noundef nonnull readonly align 1 dereferenceable(8) %3, i64 noundef %4, i32 noundef %5, i32 noundef %6, i1 noundef zeroext %7) local_unnamed_addr #16 align 2 {
  %9 = alloca [4 x i32], align 16
  %10 = alloca [4 x i32], align 16
  %11 = alloca [4 x i8], align 1
  %12 = alloca i8, align 1
  %13 = getelementptr inbounds nuw i8, ptr %0, i64 416
  %14 = load ptr, ptr %13, align 8
  br label %15

15:                                               ; preds = %8, %35
  %indvars.iv = phi i64 [ 0, %8 ], [ %indvars.iv.next, %35 ]
  %16 = getelementptr inbounds i16, ptr %1, i64 %indvars.iv
  %17 = load i16, ptr %16, align 2
  %18 = icmp eq i16 %17, 0
  br i1 %18, label %35, label %19

19:                                               ; preds = %15
  %20 = sub i16 0, %17
  %21 = and i16 %17, %20
  %22 = getelementptr inbounds i16, ptr %2, i64 %indvars.iv
  %23 = load i16, ptr %22, align 2
  %24 = sub i16 0, %21
  %25 = and i16 %23, %24
  %26 = zext i16 %25 to i64
  %27 = getelementptr inbounds %"struct.TransTableS::ttAggrType", ptr %14, i64 %26, i32 1, i64 %indvars.iv
  %28 = load i32, ptr %27, align 4
  %29 = getelementptr inbounds %"struct.TransTableS::ttAggrType", ptr %14, i64 %26
  %30 = getelementptr inbounds [4 x i32], ptr %29, i64 0, i64 %indvars.iv
  %31 = load i32, ptr %30, align 4
  %32 = getelementptr inbounds [8192 x i32], ptr @_ZL12TTlowestRank, i64 0, i64 %26
  %33 = load i32, ptr %32, align 4
  %34 = trunc i32 %33 to i8
  br label %35

35:                                               ; preds = %15, %19
  %.sink57 = phi i32 [ %28, %19 ], [ 0, %15 ]
  %.sink56 = phi i32 [ %31, %19 ], [ 0, %15 ]
  %.sink = phi i8 [ %34, %19 ], [ 15, %15 ]
  %36 = getelementptr inbounds [4 x i32], ptr %9, i64 0, i64 %indvars.iv
  store i32 %.sink57, ptr %36, align 4
  %37 = getelementptr inbounds [4 x i32], ptr %10, i64 0, i64 %indvars.iv
  store i32 %.sink56, ptr %37, align 4
  %38 = getelementptr inbounds [4 x i8], ptr %11, i64 0, i64 %indvars.iv
  store i8 %.sink, ptr %38, align 1
  %indvars.iv.next = add nuw nsw i64 %indvars.iv, 1
  %exitcond.not = icmp eq i64 %indvars.iv.next, 4
  br i1 %exitcond.not, label %39, label %15, !llvm.loop !35

39:                                               ; preds = %35
  %40 = getelementptr inbounds nuw i8, ptr %0, i64 424
  %41 = sext i32 %5 to i64
  %42 = sext i32 %6 to i64
  %43 = getelementptr inbounds [14 x [4 x ptr]], ptr %40, i64 0, i64 %41, i64 %42
  %44 = load ptr, ptr %43, align 8
  %45 = call noundef ptr @_ZN11TransTableS18SearchLenAndInsertEPNS_18posSearchTypeSmallExbiiRb(ptr noundef nonnull align 8 dereferenceable(2396) %0, ptr noundef %44, i64 noundef %4, i1 noundef zeroext true, i32 noundef %5, i32 noundef %6, ptr noundef nonnull align 1 dereferenceable(1) %12)
  %46 = load i8, ptr %3, align 1
  %47 = sext i8 %46 to i32
  %48 = getelementptr inbounds nuw i8, ptr %3, i64 1
  %49 = load i8, ptr %48, align 1
  %50 = sext i8 %49 to i32
  %51 = getelementptr inbounds nuw i8, ptr %3, i64 2
  %52 = load i8, ptr %51, align 1
  %53 = getelementptr inbounds nuw i8, ptr %3, i64 3
  %54 = load i8, ptr %53, align 1
  %55 = call noundef ptr @_ZN11TransTableS9BuildPathEPKiS1_iiccPNS_18posSearchTypeSmallERb(ptr noundef nonnull align 8 dereferenceable(2396) %0, ptr noundef nonnull %9, ptr noundef nonnull %10, i32 noundef %47, i32 noundef %50, i8 noundef signext %52, i8 noundef signext %54, ptr noundef %45, ptr noundef nonnull align 1 dereferenceable(1) %12)
  %56 = load i8, ptr %12, align 1
  %57 = trunc i8 %56 to i1
  br i1 %57, label %58, label %.loopexit

58:                                               ; preds = %39
  %59 = load i8, ptr %3, align 1
  store i8 %59, ptr %55, align 1
  %60 = load i8, ptr %48, align 1
  %61 = getelementptr inbounds nuw i8, ptr %55, i64 1
  store i8 %60, ptr %61, align 1
  br i1 %7, label %62, label %66

62:                                               ; preds = %58
  %63 = load i8, ptr %51, align 1
  %64 = getelementptr inbounds nuw i8, ptr %55, i64 2
  store i8 %63, ptr %64, align 1
  %65 = load i8, ptr %53, align 1
  br label %68

66:                                               ; preds = %58
  %67 = getelementptr inbounds nuw i8, ptr %55, i64 2
  store i8 0, ptr %67, align 1
  br label %68

68:                                               ; preds = %66, %62
  %.sink58 = phi i8 [ %65, %62 ], [ 0, %66 ]
  %69 = getelementptr inbounds nuw i8, ptr %55, i64 3
  store i8 %.sink58, ptr %69, align 1
  %70 = getelementptr inbounds nuw i8, ptr %55, i64 4
  br label %71

71:                                               ; preds = %68, %71
  %indvars.iv52 = phi i64 [ 0, %68 ], [ %indvars.iv.next53, %71 ]
  %72 = getelementptr inbounds [4 x i8], ptr %11, i64 0, i64 %indvars.iv52
  %73 = load i8, ptr %72, align 1
  %74 = sub i8 15, %73
  %75 = getelementptr inbounds [4 x i8], ptr %70, i64 0, i64 %indvars.iv52
  store i8 %74, ptr %75, align 1
  %indvars.iv.next53 = add nuw nsw i64 %indvars.iv52, 1
  %exitcond55.not = icmp eq i64 %indvars.iv.next53, 4
  br i1 %exitcond55.not, label %.loopexit, label %71, !llvm.loop !36

.loopexit:                                        ; preds = %71, %39
  ret void
}